target datalayout = "e-m:e-p270:32:32-p271:32:32-p272:64:64-i64:64-i128:128-f80:128-n8:16:32:64-S128"
target triple = "x86_64-pc-linux-gnu"

%struct.msg_t = type { %struct.nstime_t, i32, i8, i8, %struct.msg_data_t }
%struct.nstime_t = type { i64, i32 }
%struct.msg_data_t = type { i8, [64 x i8] }
%struct.canfd_frame = type { i32, i8, i8, i8, i8, [64 x i8] }
%struct.can_frame = type { i32, i8, i8, i8, i8, [8 x i8] }
%struct.wtap_rec = type { i32, i32, i32, %struct.nstime_t, i32, %struct.nstime_t, i8, %union.anon, ptr, i8, %struct.Buffer, %struct.Buffer }
%union.anon = type { %struct.wtap_packet_header }
%struct.wtap_packet_header = type { i32, i32, i32, i32, %union.wtap_pseudo_header }
%union.wtap_pseudo_header = type { %struct.erf_mc_phdr }
%struct.erf_mc_phdr = type { %struct.erf_phdr, [16 x %struct.erf_ehdr], %union.anon.1 }
%struct.erf_phdr = type { i64, i8, i8, i16, i16, i16 }
%struct.erf_ehdr = type { i64 }
%union.anon.1 = type { i32 }
%struct.Buffer = type { ptr, i64, i64, i64 }

@.str = private unnamed_addr constant [67 x i8] c"candump: File has %u-byte CAN FD packet, bigger than maximum of %u\00", align 1
@.str.1 = private unnamed_addr constant [64 x i8] c"candump: File has %u-byte CAN packet, bigger than maximum of %u\00", align 1

; Function Attrs: inlinehint nounwind null_pointer_is_valid sspstrong uwtable
define internal i64 @ws_buffer_length(ptr noundef %0) #6 {
  %2 = alloca ptr, align 8
  store ptr %0, ptr %2, align 8
  %3 = load ptr, ptr %2, align 8
  %4 = getelementptr inbounds nuw %struct.Buffer, ptr %3, i32 0, i32 3
  %5 = load i64, ptr %4, align 8
  %6 = load ptr, ptr %2, align 8
  %7 = getelementptr inbounds nuw %struct.Buffer, ptr %6, i32 0, i32 2
  %8 = load i64, ptr %7, align 8
  %9 = sub i64 %5, %8
  ret i64 %9
}

; Function Attrs: alwaysinline nounwind
define internal ptr @memcpy.inline(ptr noalias %0, ptr noalias %1, i64 %2) #8 {
  %4 = alloca ptr, align 8
  %5 = alloca ptr, align 8
  %6 = alloca i64, align 8
  store ptr %0, ptr %4, align 8
  store ptr %1, ptr %5, align 8
  store i64 %2, ptr %6, align 8
  %7 = load ptr, ptr %4, align 8
  %8 = load ptr, ptr %5, align 8
  %9 = load i64, ptr %6, align 8
  %10 = load ptr, ptr %4, align 8
  %11 = call i64 @llvm.objectsize.i64.p0(ptr %10, i1 false, i1 true, i1 true)
  %12 = call ptr @__memcpy_chk(ptr noundef %7, ptr noundef %8, i64 noundef %9, i64 noundef %11) #12
  ret ptr %12
}

; Function Attrs: inlinehint nounwind null_pointer_is_valid sspstrong uwtable
define internal void @ws_buffer_clean(ptr noundef %0) #6 {
  %2 = alloca ptr, align 8
  store ptr %0, ptr %2, align 8
  %3 = load ptr, ptr %2, align 8
  %4 = getelementptr inbounds nuw %struct.Buffer, ptr %3, i32 0, i32 2
  store i64 0, ptr %4, align 8
  %5 = load ptr, ptr %2, align 8
  %6 = getelementptr inbounds nuw %struct.Buffer, ptr %5, i32 0, i32 3
  store i64 0, ptr %6, align 8
  ret void
}

; Function Attrs: null_pointer_is_valid sspstrong uwtable
define internal zeroext i1 @candump_gen_packet(ptr noundef %0, ptr noundef %1, ptr noundef %2, ptr noundef %3) #0 {
  %5 = alloca i1, align 1
  %6 = alloca ptr, align 8
  %7 = alloca ptr, align 8
  %8 = alloca ptr, align 8
  %9 = alloca ptr, align 8
  %10 = alloca %struct.canfd_frame, align 4
  %11 = alloca i32, align 4
  %12 = alloca i32, align 4
  %13 = alloca i32, align 4
  %14 = alloca i32, align 4
  %15 = alloca %struct.can_frame, align 4
  %16 = alloca i32, align 4
  %17 = alloca i32, align 4
  %18 = alloca i32, align 4
  store ptr %0, ptr %6, align 8
  store ptr %1, ptr %7, align 8
  store ptr %2, ptr %8, align 8
  store ptr %3, ptr %9, align 8
  %19 = load ptr, ptr %6, align 8
  %20 = getelementptr inbounds nuw %struct.wtap_rec, ptr %19, i32 0, i32 11
  call void @ws_buffer_clean(ptr noundef %20)
  %21 = load ptr, ptr %7, align 8
  %22 = getelementptr inbounds nuw %struct.msg_t, ptr %21, i32 0, i32 2
  %23 = load i8, ptr %22, align 4, !range !6, !noundef !7
  %24 = trunc i8 %23 to i1
  br i1 %24, label %25, label %103

25:                                               ; preds = %4
  call void @llvm.lifetime.start.p0(i64 72, ptr %10) #12
  call void @llvm.memset.p0.i64(ptr align 4 %10, i8 0, i64 72, i1 false)
  %26 = load ptr, ptr %7, align 8
  %27 = getelementptr inbounds nuw %struct.msg_t, ptr %26, i32 0, i32 4
  %28 = getelementptr inbounds nuw %struct.msg_data_t, ptr %27, i32 0, i32 0
  %29 = load i8, ptr %28, align 2
  %30 = zext i8 %29 to i32
  %31 = icmp sgt i32 %30, 64
  br i1 %31, label %32, label %45

32:                                               ; preds = %25
  %33 = load ptr, ptr %8, align 8
  store i32 -13, ptr %33, align 4
  %34 = load ptr, ptr %9, align 8
  %35 = icmp ne ptr %34, null
  br i1 %35, label %36, label %44

36:                                               ; preds = %32
  %37 = load ptr, ptr %7, align 8
  %38 = getelementptr inbounds nuw %struct.msg_t, ptr %37, i32 0, i32 4
  %39 = getelementptr inbounds nuw %struct.msg_data_t, ptr %38, i32 0, i32 0
  %40 = load i8, ptr %39, align 2
  %41 = zext i8 %40 to i32
  %42 = call noalias ptr (ptr, ptr, ...) @wmem_strdup_printf(ptr noundef null, ptr noundef @.str, i32 noundef %41, i32 noundef 64)
  %43 = load ptr, ptr %9, align 8
  store ptr %42, ptr %43, align 8
  br label %44

44:                                               ; preds = %36, %32
  store i1 false, ptr %5, align 1
  store i32 1, ptr %11, align 4
  br label %100

45:                                               ; preds = %25
  call void @llvm.lifetime.start.p0(i64 4, ptr %12) #12
  call void @llvm.lifetime.start.p0(i64 4, ptr %13) #12
  %46 = load ptr, ptr %7, align 8
  %47 = getelementptr inbounds nuw %struct.msg_t, ptr %46, i32 0, i32 1
  %48 = load i32, ptr %47, align 8
  store i32 %48, ptr %13, align 4
  %49 = load i32, ptr %13, align 4
  %50 = call i1 @llvm.is.constant.i32(i32 %49)
  br i1 %50, label %51, label %67

51:                                               ; preds = %45
  %52 = load i32, ptr %13, align 4
  %53 = and i32 %52, 255
  %54 = shl i32 %53, 24
  %55 = load i32, ptr %13, align 4
  %56 = and i32 %55, 65280
  %57 = shl i32 %56, 8
  %58 = or i32 %54, %57
  %59 = load i32, ptr %13, align 4
  %60 = and i32 %59, 16711680
  %61 = lshr i32 %60, 8
  %62 = or i32 %58, %61
  %63 = load i32, ptr %13, align 4
  %64 = and i32 %63, -16777216
  %65 = lshr i32 %64, 24
  %66 = or i32 %62, %65
  store i32 %66, ptr %12, align 4
  br label %70

67:                                               ; preds = %45
  %68 = load i32, ptr %13, align 4
  %69 = call i32 asm "bswapl $0", "=r,0,~{dirflag},~{fpsr},~{flags}"(i32 %68) #13, !srcloc !10
  store i32 %69, ptr %12, align 4
  br label %70

70:                                               ; preds = %67, %51
  %71 = load i32, ptr %12, align 4
  store i32 %71, ptr %14, align 4
  call void @llvm.lifetime.end.p0(i64 4, ptr %13) #12
  call void @llvm.lifetime.end.p0(i64 4, ptr %12) #12
  %72 = load i32, ptr %14, align 4
  %73 = getelementptr inbounds nuw %struct.canfd_frame, ptr %10, i32 0, i32 0
  store i32 %72, ptr %73, align 4
  %74 = load ptr, ptr %7, align 8
  %75 = getelementptr inbounds nuw %struct.msg_t, ptr %74, i32 0, i32 3
  %76 = load i8, ptr %75, align 1
  %77 = zext i8 %76 to i32
  %78 = or i32 %77, 4
  %79 = trunc i32 %78 to i8
  %80 = getelementptr inbounds nuw %struct.canfd_frame, ptr %10, i32 0, i32 2
  store i8 %79, ptr %80, align 1
  %81 = load ptr, ptr %7, align 8
  %82 = getelementptr inbounds nuw %struct.msg_t, ptr %81, i32 0, i32 4
  %83 = getelementptr inbounds nuw %struct.msg_data_t, ptr %82, i32 0, i32 0
  %84 = load i8, ptr %83, align 2
  %85 = getelementptr inbounds nuw %struct.canfd_frame, ptr %10, i32 0, i32 1
  store i8 %84, ptr %85, align 4
  %86 = getelementptr inbounds nuw %struct.canfd_frame, ptr %10, i32 0, i32 5
  %87 = getelementptr inbounds [64 x i8], ptr %86, i64 0, i64 0
  %88 = load ptr, ptr %7, align 8
  %89 = getelementptr inbounds nuw %struct.msg_t, ptr %88, i32 0, i32 4
  %90 = getelementptr inbounds nuw %struct.msg_data_t, ptr %89, i32 0, i32 1
  %91 = getelementptr inbounds [64 x i8], ptr %90, i64 0, i64 0
  %92 = load ptr, ptr %7, align 8
  %93 = getelementptr inbounds nuw %struct.msg_t, ptr %92, i32 0, i32 4
  %94 = getelementptr inbounds nuw %struct.msg_data_t, ptr %93, i32 0, i32 0
  %95 = load i8, ptr %94, align 2
  %96 = zext i8 %95 to i64
  %97 = call ptr @memcpy.inline(ptr noundef %87, ptr noundef %91, i64 noundef %96) #12
  %98 = load ptr, ptr %6, align 8
  %99 = getelementptr inbounds nuw %struct.wtap_rec, ptr %98, i32 0, i32 11
  call void @ws_buffer_append(ptr noundef %99, ptr noundef %10, i64 noundef 72)
  store i32 0, ptr %11, align 4
  br label %100

100:                                              ; preds = %70, %44
  call void @llvm.lifetime.end.p0(i64 72, ptr %10) #12
  %101 = load i32, ptr %11, align 4
  switch i32 %101, label %204 [
    i32 0, label %102
    i32 1, label %202
  ]

102:                                              ; preds = %100
  br label %174

103:                                              ; preds = %4
  call void @llvm.lifetime.start.p0(i64 16, ptr %15) #12
  call void @llvm.memset.p0.i64(ptr align 4 %15, i8 0, i64 16, i1 false)
  %104 = load ptr, ptr %7, align 8
  %105 = getelementptr inbounds nuw %struct.msg_t, ptr %104, i32 0, i32 4
  %106 = getelementptr inbounds nuw %struct.msg_data_t, ptr %105, i32 0, i32 0
  %107 = load i8, ptr %106, align 2
  %108 = zext i8 %107 to i32
  %109 = icmp sgt i32 %108, 8
  br i1 %109, label %110, label %123

110:                                              ; preds = %103
  %111 = load ptr, ptr %8, align 8
  store i32 -13, ptr %111, align 4
  %112 = load ptr, ptr %9, align 8
  %113 = icmp ne ptr %112, null
  br i1 %113, label %114, label %122

114:                                              ; preds = %110
  %115 = load ptr, ptr %7, align 8
  %116 = getelementptr inbounds nuw %struct.msg_t, ptr %115, i32 0, i32 4
  %117 = getelementptr inbounds nuw %struct.msg_data_t, ptr %116, i32 0, i32 0
  %118 = load i8, ptr %117, align 2
  %119 = zext i8 %118 to i32
  %120 = call noalias ptr (ptr, ptr, ...) @wmem_strdup_printf(ptr noundef null, ptr noundef @.str.1, i32 noundef %119, i32 noundef 8)
  %121 = load ptr, ptr %9, align 8
  store ptr %120, ptr %121, align 8
  br label %122

122:                                              ; preds = %114, %110
  store i1 false, ptr %5, align 1
  store i32 1, ptr %11, align 4
  br label %171

123:                                              ; preds = %103
  call void @llvm.lifetime.start.p0(i64 4, ptr %16) #12
  call void @llvm.lifetime.start.p0(i64 4, ptr %17) #12
  %124 = load ptr, ptr %7, align 8
  %125 = getelementptr inbounds nuw %struct.msg_t, ptr %124, i32 0, i32 1
  %126 = load i32, ptr %125, align 8
  store i32 %126, ptr %17, align 4
  %127 = load i32, ptr %17, align 4
  %128 = call i1 @llvm.is.constant.i32(i32 %127)
  br i1 %128, label %129, label %145

129:                                              ; preds = %123
  %130 = load i32, ptr %17, align 4
  %131 = and i32 %130, 255
  %132 = shl i32 %131, 24
  %133 = load i32, ptr %17, align 4
  %134 = and i32 %133, 65280
  %135 = shl i32 %134, 8
  %136 = or i32 %132, %135
  %137 = load i32, ptr %17, align 4
  %138 = and i32 %137, 16711680
  %139 = lshr i32 %138, 8
  %140 = or i32 %136, %139
  %141 = load i32, ptr %17, align 4
  %142 = and i32 %141, -16777216
  %143 = lshr i32 %142, 24
  %144 = or i32 %140, %143
  store i32 %144, ptr %16, align 4
  br label %148

145:                                              ; preds = %123
  %146 = load i32, ptr %17, align 4
  %147 = call i32 asm "bswapl $0", "=r,0,~{dirflag},~{fpsr},~{flags}"(i32 %146) #13, !srcloc !11
  store i32 %147, ptr %16, align 4
  br label %148

148:                                              ; preds = %145, %129
  %149 = load i32, ptr %16, align 4
  store i32 %149, ptr %18, align 4
  call void @llvm.lifetime.end.p0(i64 4, ptr %17) #12
  call void @llvm.lifetime.end.p0(i64 4, ptr %16) #12
  %150 = load i32, ptr %18, align 4
  %151 = getelementptr inbounds nuw %struct.can_frame, ptr %15, i32 0, i32 0
  store i32 %150, ptr %151, align 4
  %152 = load ptr, ptr %7, align 8
  %153 = getelementptr inbounds nuw %struct.msg_t, ptr %152, i32 0, i32 4
  %154 = getelementptr inbounds nuw %struct.msg_data_t, ptr %153, i32 0, i32 0
  %155 = load i8, ptr %154, align 2
  %156 = getelementptr inbounds nuw %struct.can_frame, ptr %15, i32 0, i32 1
  store i8 %155, ptr %156, align 4
  %157 = getelementptr inbounds nuw %struct.can_frame, ptr %15, i32 0, i32 5
  %158 = getelementptr inbounds [8 x i8], ptr %157, i64 0, i64 0
  %159 = load ptr, ptr %7, align 8
  %160 = getelementptr inbounds nuw %struct.msg_t, ptr %159, i32 0, i32 4
  %161 = getelementptr inbounds nuw %struct.msg_data_t, ptr %160, i32 0, i32 1
  %162 = getelementptr inbounds [64 x i8], ptr %161, i64 0, i64 0
  %163 = load ptr, ptr %7, align 8
  %164 = getelementptr inbounds nuw %struct.msg_t, ptr %163, i32 0, i32 4
  %165 = getelementptr inbounds nuw %struct.msg_data_t, ptr %164, i32 0, i32 0
  %166 = load i8, ptr %165, align 2
  %167 = zext i8 %166 to i64
  %168 = call ptr @memcpy.inline(ptr noundef %158, ptr noundef %162, i64 noundef %167) #12
  %169 = load ptr, ptr %6, align 8
  %170 = getelementptr inbounds nuw %struct.wtap_rec, ptr %169, i32 0, i32 11
  call void @ws_buffer_append(ptr noundef %170, ptr noundef %15, i64 noundef 16)
  store i32 0, ptr %11, align 4
  br label %171

171:                                              ; preds = %148, %122
  call void @llvm.lifetime.end.p0(i64 16, ptr %15) #12
  %172 = load i32, ptr %11, align 4
  switch i32 %172, label %204 [
    i32 0, label %173
    i32 1, label %202
  ]

173:                                              ; preds = %171
  br label %174

174:                                              ; preds = %173, %102
  %175 = load ptr, ptr %6, align 8
  %176 = getelementptr inbounds nuw %struct.wtap_rec, ptr %175, i32 0, i32 0
  store i32 0, ptr %176, align 8
  %177 = call ptr @wtap_block_create(i32 noundef 5)
  %178 = load ptr, ptr %6, align 8
  %179 = getelementptr inbounds nuw %struct.wtap_rec, ptr %178, i32 0, i32 8
  store ptr %177, ptr %179, align 8
  %180 = load ptr, ptr %6, align 8
  %181 = getelementptr inbounds nuw %struct.wtap_rec, ptr %180, i32 0, i32 1
  store i32 1, ptr %181, align 4
  %182 = load ptr, ptr %6, align 8
  %183 = getelementptr inbounds nuw %struct.wtap_rec, ptr %182, i32 0, i32 3
  %184 = load ptr, ptr %7, align 8
  %185 = getelementptr inbounds nuw %struct.msg_t, ptr %184, i32 0, i32 0
  call void @llvm.memcpy.p0.p0.i64(ptr align 8 %183, ptr align 8 %185, i64 16, i1 false)
  %186 = load ptr, ptr %6, align 8
  %187 = getelementptr inbounds nuw %struct.wtap_rec, ptr %186, i32 0, i32 4
  store i32 6, ptr %187, align 8
  %188 = load ptr, ptr %6, align 8
  %189 = getelementptr inbounds nuw %struct.wtap_rec, ptr %188, i32 0, i32 11
  %190 = call i64 @ws_buffer_length(ptr noundef %189)
  %191 = trunc i64 %190 to i32
  %192 = load ptr, ptr %6, align 8
  %193 = getelementptr inbounds nuw %struct.wtap_rec, ptr %192, i32 0, i32 7
  %194 = getelementptr inbounds nuw %struct.wtap_packet_header, ptr %193, i32 0, i32 0
  store i32 %191, ptr %194, align 8
  %195 = load ptr, ptr %6, align 8
  %196 = getelementptr inbounds nuw %struct.wtap_rec, ptr %195, i32 0, i32 11
  %197 = call i64 @ws_buffer_length(ptr noundef %196)
  %198 = trunc i64 %197 to i32
  %199 = load ptr, ptr %6, align 8
  %200 = getelementptr inbounds nuw %struct.wtap_rec, ptr %199, i32 0, i32 7
  %201 = getelementptr inbounds nuw %struct.wtap_packet_header, ptr %200, i32 0, i32 1
  store i32 %198, ptr %201, align 4
  store i1 true, ptr %5, align 1
  br label %202

202:                                              ; preds = %174, %171, %100
  %203 = load i1, ptr %5, align 1
  ret i1 %203

204:                                              ; preds = %171, %100
  unreachable
}