; Function Attrs: null_pointer_is_valid sspstrong uwtable
define internal fastcc noundef zeroext i1 @candump_gen_packet(ptr noundef initializes((296, 312)) %0, ptr noundef readonly captures(none) %1, ptr noundef writeonly captures(none) %2, ptr noundef writeonly captures(address_is_null) %3) unnamed_addr #0 {
  %5 = alloca %struct.canfd_frame, align 4
  %6 = alloca %struct.can_frame, align 4
  %7 = getelementptr inbounds nuw i8, ptr %0, i64 280
  %8 = getelementptr inbounds nuw i8, ptr %0, i64 296
  tail call void @llvm.memset.p0.i64(ptr noundef nonnull align 8 dereferenceable(16) %8, i8 0, i64 16, i1 false)
  %9 = getelementptr inbounds nuw i8, ptr %1, i64 20
  %10 = load i8, ptr %9, align 4, !range !6, !noundef !9
  %11 = trunc nuw i8 %10 to i1
  %12 = getelementptr inbounds nuw i8, ptr %1, i64 22
  br i1 %11, label %13, label %35

13:                                               ; preds = %4
  call void @llvm.lifetime.start.p0(i64 72, ptr nonnull %5) #8
  %14 = getelementptr inbounds nuw i8, ptr %5, i64 4
  call void @llvm.memset.p0.i64(ptr noundef nonnull align 4 dereferenceable(72) %14, i8 0, i64 68, i1 false)
  %15 = load i8, ptr %12, align 2
  %16 = icmp ugt i8 %15, 64
  br i1 %16, label %17, label %22

17:                                               ; preds = %13
  store i32 -13, ptr %2, align 4
  %.not56 = icmp eq ptr %3, null
  br i1 %.not56, label %.thread, label %18

18:                                               ; preds = %17
  %19 = load i8, ptr %12, align 2
  %20 = zext i8 %19 to i32
  %21 = tail call noalias ptr (ptr, ptr, ...) @wmem_strdup_printf(ptr noundef null, ptr noundef nonnull @.str, i32 noundef %20, i32 noundef 64)
  store ptr %21, ptr %3, align 8
  br label %.thread

22:                                               ; preds = %13
  %23 = getelementptr inbounds nuw i8, ptr %1, i64 16
  %24 = load i32, ptr %23, align 8
  %25 = tail call i32 asm "bswapl $0", "=r,0,~{dirflag},~{fpsr},~{flags}"(i32 %24) #9, !srcloc !10
  store i32 %25, ptr %5, align 4
  %26 = getelementptr inbounds nuw i8, ptr %1, i64 21
  %27 = load i8, ptr %26, align 1
  %28 = or i8 %27, 4
  %29 = getelementptr inbounds nuw i8, ptr %5, i64 5
  store i8 %28, ptr %29, align 1
  %30 = getelementptr inbounds nuw i8, ptr %5, i64 4
  store i8 %15, ptr %30, align 4
  %31 = getelementptr inbounds nuw i8, ptr %5, i64 8
  %32 = getelementptr inbounds nuw i8, ptr %1, i64 23
  %33 = zext nneg i8 %15 to i64
  %34 = call ptr @__memcpy_chk(ptr noundef nonnull %31, ptr noundef nonnull %32, i64 noundef range(i64 0, 256) %33, i64 noundef 64) #8, !alias.scope !11
  call void @ws_buffer_append(ptr noundef nonnull %7, ptr noundef nonnull %5, i64 noundef 72)
  call void @llvm.lifetime.end.p0(i64 72, ptr nonnull %5) #8
  br label %53

.thread:                                          ; preds = %17, %18
  call void @llvm.lifetime.end.p0(i64 72, ptr nonnull %5) #8
  br label %64

35:                                               ; preds = %4
  call void @llvm.lifetime.start.p0(i64 16, ptr nonnull %6) #8
  %36 = getelementptr inbounds nuw i8, ptr %6, i64 4
  call void @llvm.memset.p0.i64(ptr noundef nonnull align 4 dereferenceable(16) %36, i8 0, i64 12, i1 false)
  %37 = load i8, ptr %12, align 2
  %38 = icmp ugt i8 %37, 8
  br i1 %38, label %39, label %44

39:                                               ; preds = %35
  store i32 -13, ptr %2, align 4
  %.not = icmp eq ptr %3, null
  br i1 %.not, label %.thread64, label %40

40:                                               ; preds = %39
  %41 = load i8, ptr %12, align 2
  %42 = zext i8 %41 to i32
  %43 = tail call noalias ptr (ptr, ptr, ...) @wmem_strdup_printf(ptr noundef null, ptr noundef nonnull @.str.1, i32 noundef %42, i32 noundef 8)
  store ptr %43, ptr %3, align 8
  br label %.thread64

44:                                               ; preds = %35
  %45 = getelementptr inbounds nuw i8, ptr %1, i64 16
  %46 = load i32, ptr %45, align 8
  %47 = tail call i32 asm "bswapl $0", "=r,0,~{dirflag},~{fpsr},~{flags}"(i32 %46) #9, !srcloc !15
  store i32 %47, ptr %6, align 4
  %48 = getelementptr inbounds nuw i8, ptr %6, i64 4
  store i8 %37, ptr %48, align 4
  %49 = getelementptr inbounds nuw i8, ptr %6, i64 8
  %50 = getelementptr inbounds nuw i8, ptr %1, i64 23
  %51 = zext nneg i8 %37 to i64
  %52 = call ptr @__memcpy_chk(ptr noundef nonnull %49, ptr noundef nonnull %50, i64 noundef range(i64 0, 256) %51, i64 noundef 8) #8, !alias.scope !16
  call void @ws_buffer_append(ptr noundef nonnull %7, ptr noundef nonnull %6, i64 noundef 16)
  call void @llvm.lifetime.end.p0(i64 16, ptr nonnull %6) #8
  br label %53

.thread64:                                        ; preds = %39, %40
  call void @llvm.lifetime.end.p0(i64 16, ptr nonnull %6) #8
  br label %64

53:                                               ; preds = %44, %22
  store i32 0, ptr %0, align 8
  %54 = call ptr @wtap_block_create(i32 noundef 5)
  %55 = getelementptr inbounds nuw i8, ptr %0, i64 232
  store ptr %54, ptr %55, align 8
  %56 = getelementptr inbounds nuw i8, ptr %0, i64 4
  store i32 1, ptr %56, align 4
  %57 = getelementptr inbounds nuw i8, ptr %0, i64 16
  call void @llvm.memcpy.p0.p0.i64(ptr noundef nonnull align 8 dereferenceable(16) %57, ptr noundef align 8 dereferenceable(16) %1, i64 16, i1 false)
  %58 = getelementptr inbounds nuw i8, ptr %0, i64 32
  store i32 6, ptr %58, align 8
  %.val = load i64, ptr %8, align 8
  %59 = getelementptr i8, ptr %0, i64 304
  %.val59 = load i64, ptr %59, align 8
  %60 = sub i64 %.val59, %.val
  %61 = trunc i64 %60 to i32
  %62 = getelementptr inbounds nuw i8, ptr %0, i64 64
  store i32 %61, ptr %62, align 8
  %63 = getelementptr inbounds nuw i8, ptr %0, i64 68
  store i32 %61, ptr %63, align 4
  br label %64

64:                                               ; preds = %.thread64, %.thread, %53
  %.1 = phi i1 [ true, %53 ], [ false, %.thread ], [ false, %.thread64 ]
  ret i1 %.1
}